target datalayout = "e-m:e-p270:32:32-p271:32:32-p272:64:64-i64:64-i128:128-f80:128-n8:16:32:64-S128"
target triple = "x86_64-pc-linux-gnu"

%struct.FT_ListRec_ = type { ptr, ptr }
%struct.SFNT_Interface_ = type { ptr, ptr, ptr, ptr, ptr, ptr, ptr, ptr, ptr, ptr, ptr, ptr, ptr, ptr, ptr, ptr, ptr, ptr, ptr, ptr, ptr, ptr, ptr, ptr, ptr, ptr, ptr, ptr, ptr, ptr, ptr, ptr, ptr, ptr, ptr, ptr, ptr, ptr, ptr, ptr, ptr, ptr, ptr, ptr, ptr, ptr, ptr, ptr }
%struct.FT_FaceRec_ = type { i64, i64, i64, i64, i64, ptr, ptr, i32, ptr, i32, ptr, %struct.FT_Generic_, %struct.FT_BBox_, i16, i16, i16, i16, i16, i16, i16, i16, ptr, ptr, ptr, ptr, ptr, ptr, %struct.FT_ListRec_, %struct.FT_Generic_, ptr, ptr }
%struct.FT_BBox_ = type { i64, i64, i64, i64 }
%struct.FT_Generic_ = type { ptr, ptr }
%struct.TT_FaceRec_ = type { %struct.FT_FaceRec_, %struct.TTC_HeaderRec_, i64, i16, ptr, %struct.TT_Header_, %struct.TT_HoriHeader_, %struct.TT_MaxProfile_, i8, %struct.TT_VertHeader_, i16, %struct.TT_NameTableRec_, %struct.TT_OS2_, %struct.TT_Postscript_, ptr, i64, ptr, ptr, ptr, ptr, ptr, ptr, ptr, ptr, ptr, ptr, ptr, ptr, %struct.TT_Gasp_, %struct.TT_PCLT_, i64, ptr, %struct.TT_Post_NamesRec_, %struct.FT_Palette_Data_, i16, ptr, i8, %struct.FT_Color_, i64, ptr, i64, ptr, i64, ptr, ptr, %struct.FT_Generic_, ptr, i64, i64, i8, i8, ptr, i32, ptr, i32, i32, ptr, i64, i64, i64, ptr, ptr, i64, i32, i64, ptr, ptr, i64, i32, i32, ptr, ptr, i64, i32, i32, i32, %struct.TT_BDFRec_, i64, i64, i64, i64, ptr, ptr, ptr }
%struct.TTC_HeaderRec_ = type { i64, i64, i64, ptr }
%struct.TT_Header_ = type { i64, i64, i64, i64, i16, i16, [2 x i64], [2 x i64], i16, i16, i16, i16, i16, i16, i16, i16, i16 }
%struct.TT_HoriHeader_ = type { i64, i16, i16, i16, i16, i16, i16, i16, i16, i16, i16, [4 x i16], i16, i16, ptr, ptr }
%struct.TT_MaxProfile_ = type { i64, i16, i16, i16, i16, i16, i16, i16, i16, i16, i16, i16, i16, i16, i16 }
%struct.TT_VertHeader_ = type { i64, i16, i16, i16, i16, i16, i16, i16, i16, i16, i16, [4 x i16], i16, i16, ptr, ptr }
%struct.TT_NameTableRec_ = type { i16, i32, i32, ptr, i32, ptr, ptr }
%struct.TT_OS2_ = type { i16, i16, i16, i16, i16, i16, i16, i16, i16, i16, i16, i16, i16, i16, i16, i16, [10 x i8], i64, i64, i64, i64, [4 x i8], i16, i16, i16, i16, i16, i16, i16, i16, i64, i64, i16, i16, i16, i16, i16, i16, i16 }
%struct.TT_Postscript_ = type { i64, i64, i16, i16, i64, i64, i64, i64, i64 }
%struct.TT_Gasp_ = type { i16, i16, ptr }
%struct.TT_PCLT_ = type { i64, i64, i16, i16, i16, i16, i16, i16, [16 x i8], [8 x i8], [6 x i8], i8, i8, i8, i8 }
%struct.TT_Post_NamesRec_ = type { i8, i16, i16, ptr, ptr }
%struct.FT_Palette_Data_ = type { i16, ptr, ptr, i16, ptr }
%struct.FT_Color_ = type { i8, i8, i8, i8 }
%struct.TT_BDFRec_ = type { ptr, ptr, ptr, i64, i32, i8 }
%struct.FT_StreamRec_ = type { ptr, i64, i64, %union.FT_StreamDesc_, %union.FT_StreamDesc_, ptr, ptr, ptr, ptr, ptr }
%union.FT_StreamDesc_ = type { i64 }

; Function Attrs: nounwind uwtable
define internal void @tt_face_free_hdmx(ptr noundef %0) #0 {
  %2 = alloca ptr, align 8
  %3 = alloca ptr, align 8
  %4 = alloca ptr, align 8
  store ptr %0, ptr %2, align 8
  %5 = load ptr, ptr %2, align 8
  %6 = getelementptr inbounds %struct.TT_FaceRec_, ptr %5, i32 0, i32 0
  %7 = getelementptr inbounds %struct.FT_FaceRec_, ptr %6, i32 0, i32 26
  %8 = load ptr, ptr %7, align 8
  store ptr %8, ptr %3, align 8
  %9 = load ptr, ptr %3, align 8
  %10 = getelementptr inbounds %struct.FT_StreamRec_, ptr %9, i32 0, i32 7
  %11 = load ptr, ptr %10, align 8
  store ptr %11, ptr %4, align 8
  br label %12

12:                                               ; preds = %1
  %13 = load ptr, ptr %4, align 8
  %14 = load ptr, ptr %2, align 8
  %15 = getelementptr inbounds %struct.TT_FaceRec_, ptr %14, i32 0, i32 65
  %16 = load ptr, ptr %15, align 8
  call void @ft_mem_free(ptr noundef %13, ptr noundef %16)
  %17 = load ptr, ptr %2, align 8
  %18 = getelementptr inbounds %struct.TT_FaceRec_, ptr %17, i32 0, i32 65
  store ptr null, ptr %18, align 8
  br label %19

19:                                               ; preds = %12
  %20 = load ptr, ptr %3, align 8
  %21 = load ptr, ptr %2, align 8
  %22 = getelementptr inbounds %struct.TT_FaceRec_, ptr %21, i32 0, i32 61
  call void @FT_Stream_ReleaseFrame(ptr noundef %20, ptr noundef %22)
  ret void
}

; Function Attrs: nounwind uwtable
define internal void @tt_face_done_loca(ptr noundef %0) #0 {
  %2 = alloca ptr, align 8
  %3 = alloca ptr, align 8
  store ptr %0, ptr %2, align 8
  %4 = load ptr, ptr %2, align 8
  %5 = getelementptr inbounds %struct.TT_FaceRec_, ptr %4, i32 0, i32 0
  %6 = getelementptr inbounds %struct.FT_FaceRec_, ptr %5, i32 0, i32 26
  %7 = load ptr, ptr %6, align 8
  store ptr %7, ptr %3, align 8
  %8 = load ptr, ptr %3, align 8
  %9 = load ptr, ptr %2, align 8
  %10 = getelementptr inbounds %struct.TT_FaceRec_, ptr %9, i32 0, i32 60
  call void @FT_Stream_ReleaseFrame(ptr noundef %8, ptr noundef %10)
  %11 = load ptr, ptr %2, align 8
  %12 = getelementptr inbounds %struct.TT_FaceRec_, ptr %11, i32 0, i32 59
  store i64 0, ptr %12, align 8
  ret void
}

; Function Attrs: nounwind uwtable
define internal void @tt_face_done(ptr noundef %0) #0 {
  %2 = alloca ptr, align 8
  %3 = alloca ptr, align 8
  %4 = alloca ptr, align 8
  %5 = alloca ptr, align 8
  %6 = alloca ptr, align 8
  store ptr %0, ptr %2, align 8
  %7 = load ptr, ptr %2, align 8
  store ptr %7, ptr %3, align 8
  %8 = load ptr, ptr %3, align 8
  %9 = icmp ne ptr %8, null
  br i1 %9, label %11, label %10

10:                                               ; preds = %1
  br label %69

11:                                               ; preds = %1
  %12 = load ptr, ptr %2, align 8
  %13 = getelementptr inbounds %struct.FT_FaceRec_, ptr %12, i32 0, i32 25
  %14 = load ptr, ptr %13, align 8
  store ptr %14, ptr %4, align 8
  %15 = load ptr, ptr %2, align 8
  %16 = getelementptr inbounds %struct.FT_FaceRec_, ptr %15, i32 0, i32 26
  %17 = load ptr, ptr %16, align 8
  store ptr %17, ptr %5, align 8
  %18 = load ptr, ptr %3, align 8
  %19 = getelementptr inbounds %struct.TT_FaceRec_, ptr %18, i32 0, i32 22
  %20 = load ptr, ptr %19, align 8
  store ptr %20, ptr %6, align 8
  %21 = load ptr, ptr %3, align 8
  %22 = getelementptr inbounds %struct.TT_FaceRec_, ptr %21, i32 0, i32 45
  %23 = getelementptr inbounds %struct.FT_Generic_, ptr %22, i32 0, i32 1
  %24 = load ptr, ptr %23, align 8
  %25 = icmp ne ptr %24, null
  br i1 %25, label %26, label %35

26:                                               ; preds = %11
  %27 = load ptr, ptr %3, align 8
  %28 = getelementptr inbounds %struct.TT_FaceRec_, ptr %27, i32 0, i32 45
  %29 = getelementptr inbounds %struct.FT_Generic_, ptr %28, i32 0, i32 1
  %30 = load ptr, ptr %29, align 8
  %31 = load ptr, ptr %3, align 8
  %32 = getelementptr inbounds %struct.TT_FaceRec_, ptr %31, i32 0, i32 45
  %33 = getelementptr inbounds %struct.FT_Generic_, ptr %32, i32 0, i32 0
  %34 = load ptr, ptr %33, align 8
  call void %30(ptr noundef %34)
  br label %35

35:                                               ; preds = %26, %11
  %36 = load ptr, ptr %6, align 8
  %37 = icmp ne ptr %36, null
  br i1 %37, label %38, label %43

38:                                               ; preds = %35
  %39 = load ptr, ptr %6, align 8
  %40 = getelementptr inbounds %struct.SFNT_Interface_, ptr %39, i32 0, i32 3
  %41 = load ptr, ptr %40, align 8
  %42 = load ptr, ptr %3, align 8
  call void %41(ptr noundef %42)
  br label %43

43:                                               ; preds = %38, %35
  %44 = load ptr, ptr %3, align 8
  call void @tt_face_done_loca(ptr noundef %44)
  %45 = load ptr, ptr %3, align 8
  call void @tt_face_free_hdmx(ptr noundef %45)
  br label %46

46:                                               ; preds = %43
  %47 = load ptr, ptr %4, align 8
  %48 = load ptr, ptr %3, align 8
  %49 = getelementptr inbounds %struct.TT_FaceRec_, ptr %48, i32 0, i32 43
  %50 = load ptr, ptr %49, align 8
  call void @ft_mem_free(ptr noundef %47, ptr noundef %50)
  %51 = load ptr, ptr %3, align 8
  %52 = getelementptr inbounds %struct.TT_FaceRec_, ptr %51, i32 0, i32 43
  store ptr null, ptr %52, align 8
  br label %53

53:                                               ; preds = %46
  %54 = load ptr, ptr %3, align 8
  %55 = getelementptr inbounds %struct.TT_FaceRec_, ptr %54, i32 0, i32 42
  store i64 0, ptr %55, align 8
  %56 = load ptr, ptr %5, align 8
  %57 = load ptr, ptr %3, align 8
  %58 = getelementptr inbounds %struct.TT_FaceRec_, ptr %57, i32 0, i32 39
  call void @FT_Stream_ReleaseFrame(ptr noundef %56, ptr noundef %58)
  %59 = load ptr, ptr %5, align 8
  %60 = load ptr, ptr %3, align 8
  %61 = getelementptr inbounds %struct.TT_FaceRec_, ptr %60, i32 0, i32 41
  call void @FT_Stream_ReleaseFrame(ptr noundef %59, ptr noundef %61)
  %62 = load ptr, ptr %3, align 8
  %63 = getelementptr inbounds %struct.TT_FaceRec_, ptr %62, i32 0, i32 38
  store i64 0, ptr %63, align 8
  %64 = load ptr, ptr %3, align 8
  %65 = getelementptr inbounds %struct.TT_FaceRec_, ptr %64, i32 0, i32 40
  store i64 0, ptr %65, align 8
  %66 = load ptr, ptr %2, align 8
  call void @tt_done_blend(ptr noundef %66)
  %67 = load ptr, ptr %3, align 8
  %68 = getelementptr inbounds %struct.TT_FaceRec_, ptr %67, i32 0, i32 51
  store ptr null, ptr %68, align 8
  br label %69

69:                                               ; preds = %53, %10
  ret void
}