; Function Attrs: nounwind uwtable
define internal void @tt_face_done(ptr noundef %0) #2 {
  %.not = icmp eq ptr %0, null
  br i1 %.not, label %36, label %2

2:                                                ; preds = %1
  %3 = getelementptr inbounds i8, ptr %0, i64 184
  %4 = load ptr, ptr %3, align 8
  %5 = getelementptr inbounds i8, ptr %0, i64 192
  %6 = load ptr, ptr %5, align 8
  %7 = getelementptr inbounds i8, ptr %0, i64 880
  %8 = load ptr, ptr %7, align 8
  %9 = getelementptr inbounds i8, ptr %0, i64 1176
  %10 = load ptr, ptr %9, align 8
  %.not27 = icmp eq ptr %10, null
  br i1 %.not27, label %14, label %11

11:                                               ; preds = %2
  %12 = getelementptr inbounds i8, ptr %0, i64 1168
  %13 = load ptr, ptr %12, align 8
  tail call void %10(ptr noundef %13) #22
  br label %14

14:                                               ; preds = %11, %2
  %.not28 = icmp eq ptr %8, null
  br i1 %.not28, label %18, label %15

15:                                               ; preds = %14
  %16 = getelementptr inbounds i8, ptr %8, i64 24
  %17 = load ptr, ptr %16, align 8
  tail call void %17(ptr noundef nonnull %0) #22
  br label %18

18:                                               ; preds = %15, %14
  %19 = load ptr, ptr %5, align 8
  %20 = getelementptr inbounds i8, ptr %0, i64 1280
  tail call void @FT_Stream_ReleaseFrame(ptr noundef %19, ptr noundef nonnull %20) #22
  %21 = getelementptr inbounds i8, ptr %0, i64 1272
  store i64 0, ptr %21, align 8
  %22 = load ptr, ptr %5, align 8
  %23 = getelementptr inbounds i8, ptr %22, i64 56
  %24 = load ptr, ptr %23, align 8
  %25 = getelementptr inbounds i8, ptr %0, i64 1320
  %26 = load ptr, ptr %25, align 8
  tail call void @ft_mem_free(ptr noundef %24, ptr noundef %26) #22
  store ptr null, ptr %25, align 8
  %27 = getelementptr inbounds i8, ptr %0, i64 1288
  tail call void @FT_Stream_ReleaseFrame(ptr noundef %22, ptr noundef nonnull %27) #22
  %28 = getelementptr inbounds i8, ptr %0, i64 1152
  %29 = load ptr, ptr %28, align 8
  tail call void @ft_mem_free(ptr noundef %4, ptr noundef %29) #22
  %30 = getelementptr inbounds i8, ptr %0, i64 1144
  %31 = getelementptr inbounds i8, ptr %0, i64 1120
  tail call void @llvm.memset.p0.i64(ptr noundef nonnull align 8 dereferenceable(16) %30, i8 0, i64 16, i1 false)
  tail call void @FT_Stream_ReleaseFrame(ptr noundef %6, ptr noundef nonnull %31) #22
  %32 = getelementptr inbounds i8, ptr %0, i64 1136
  tail call void @FT_Stream_ReleaseFrame(ptr noundef %6, ptr noundef nonnull %32) #22
  %33 = getelementptr inbounds i8, ptr %0, i64 1112
  store i64 0, ptr %33, align 8
  %34 = getelementptr inbounds i8, ptr %0, i64 1128
  store i64 0, ptr %34, align 8
  tail call void @tt_done_blend(ptr noundef nonnull %0)
  %35 = getelementptr inbounds i8, ptr %0, i64 1216
  store ptr null, ptr %35, align 8
  br label %36

36:                                               ; preds = %1, %18
  ret void
}